target datalayout = "e-m:e-p270:32:32-p271:32:32-p272:64:64-i64:64-i128:128-f80:128-n8:16:32:64-S128"
target triple = "x86_64-pc-linux-gnu"

@hf_amf_version = internal global i32 0, align 4
@hf_amf_header_count = internal global i32 0, align 4
@hf_amf_header_name = internal global i32 0, align 4
@hf_amf_header_must_understand = internal global i32 0, align 4
@hf_amf_header_length = internal global i32 0, align 4
@hf_amf_message_count = internal global i32 0, align 4
@hf_amf_message_target_uri = internal global i32 0, align 4
@hf_amf_message_response_uri = internal global i32 0, align 4
@hf_amf_message_length = internal global i32 0, align 4
@ett_amf = internal global i32 0, align 4
@ett_amf_headers = internal global i32 0, align 4
@ett_amf_messages = internal global i32 0, align 4
@proto_amf = internal global i32 0, align 4
@.str.383 = private unnamed_addr constant [8 x i8] c"Unknown\00", align 1
@.str.433 = private unnamed_addr constant [8 x i8] c"Headers\00", align 1
@.str.434 = private unnamed_addr constant [9 x i8] c"Messages\00", align 1

; Function Attrs: null_pointer_is_valid sspstrong uwtable
define internal i32 @dissect_rtmpt_body_command(ptr noundef %0, ptr noundef %1, i32 noundef %2, ptr noundef %3, i1 noundef zeroext %4) #0 {
  %6 = alloca ptr, align 8
  %7 = alloca ptr, align 8
  %8 = alloca i32, align 4
  %9 = alloca ptr, align 8
  %10 = alloca i8, align 1
  %11 = alloca i8, align 1
  store ptr %0, ptr %6, align 8
  store ptr %1, ptr %7, align 8
  store i32 %2, ptr %8, align 4
  store ptr %3, ptr %9, align 8
  %12 = zext i1 %4 to i8
  store i8 %12, ptr %10, align 1
  call void @llvm.lifetime.start.p0(i64 1, ptr %11) #12
  store i8 0, ptr %11, align 1
  %13 = load i8, ptr %10, align 1, !range !6, !noundef !7
  %14 = trunc i8 %13 to i1
  br i1 %14, label %15, label %18

15:                                               ; preds = %5
  %16 = load i32, ptr %8, align 4
  %17 = add i32 %16, 1
  store i32 %17, ptr %8, align 4
  br label %18

18:                                               ; preds = %15, %5
  br label %19

19:                                               ; preds = %39, %18
  %20 = load ptr, ptr %6, align 8
  %21 = load i32, ptr %8, align 4
  %22 = call i32 @tvb_reported_length_remaining(ptr noundef %20, i32 noundef %21)
  %23 = icmp sgt i32 %22, 0
  br i1 %23, label %24, label %40

24:                                               ; preds = %19
  %25 = load i8, ptr %11, align 1, !range !6, !noundef !7
  %26 = trunc i8 %25 to i1
  br i1 %26, label %27, label %33

27:                                               ; preds = %24
  %28 = load ptr, ptr %6, align 8
  %29 = load ptr, ptr %7, align 8
  %30 = load i32, ptr %8, align 4
  %31 = load ptr, ptr %9, align 8
  %32 = call i32 @dissect_amf3_value_type(ptr noundef %28, ptr noundef %29, i32 noundef %30, ptr noundef %31, ptr noundef null)
  store i32 %32, ptr %8, align 4
  br label %39

33:                                               ; preds = %24
  %34 = load ptr, ptr %6, align 8
  %35 = load ptr, ptr %7, align 8
  %36 = load i32, ptr %8, align 4
  %37 = load ptr, ptr %9, align 8
  %38 = call i32 @dissect_amf0_value_type(ptr noundef %34, ptr noundef %35, i32 noundef %36, ptr noundef %37, ptr noundef %11, ptr noundef null)
  store i32 %38, ptr %8, align 4
  br label %39

39:                                               ; preds = %33, %27
  br label %19, !llvm.loop !14

40:                                               ; preds = %19
  %41 = load i32, ptr %8, align 4
  call void @llvm.lifetime.end.p0(i64 1, ptr %11) #12
  ret i32 %41
}

; Function Attrs: null_pointer_is_valid sspstrong uwtable
define internal i32 @dissect_amf(ptr noundef %0, ptr noundef %1, ptr noundef %2, ptr noundef %3) #0 {
  %5 = alloca ptr, align 8
  %6 = alloca ptr, align 8
  %7 = alloca ptr, align 8
  %8 = alloca ptr, align 8
  %9 = alloca ptr, align 8
  %10 = alloca ptr, align 8
  %11 = alloca ptr, align 8
  %12 = alloca ptr, align 8
  %13 = alloca i32, align 4
  %14 = alloca i32, align 4
  %15 = alloca i32, align 4
  %16 = alloca i32, align 4
  %17 = alloca i32, align 4
  %18 = alloca i32, align 4
  %19 = alloca i32, align 4
  %20 = alloca i8, align 1
  store ptr %0, ptr %5, align 8
  store ptr %1, ptr %6, align 8
  store ptr %2, ptr %7, align 8
  store ptr %3, ptr %8, align 8
  call void @llvm.lifetime.start.p0(i64 8, ptr %9) #12
  call void @llvm.lifetime.start.p0(i64 8, ptr %10) #12
  call void @llvm.lifetime.start.p0(i64 8, ptr %11) #12
  call void @llvm.lifetime.start.p0(i64 8, ptr %12) #12
  call void @llvm.lifetime.start.p0(i64 4, ptr %13) #12
  call void @llvm.lifetime.start.p0(i64 4, ptr %14) #12
  call void @llvm.lifetime.start.p0(i64 4, ptr %15) #12
  call void @llvm.lifetime.start.p0(i64 4, ptr %16) #12
  call void @llvm.lifetime.start.p0(i64 4, ptr %17) #12
  call void @llvm.lifetime.start.p0(i64 4, ptr %18) #12
  call void @llvm.lifetime.start.p0(i64 4, ptr %19) #12
  call void @llvm.lifetime.start.p0(i64 1, ptr %20) #12
  store i8 0, ptr %20, align 1
  %21 = load ptr, ptr %7, align 8
  %22 = load i32, ptr @proto_amf, align 4
  %23 = load ptr, ptr %5, align 8
  %24 = call ptr @proto_tree_add_item(ptr noundef %21, i32 noundef %22, ptr noundef %23, i32 noundef 0, i32 noundef -1, i32 noundef 0)
  store ptr %24, ptr %9, align 8
  %25 = load ptr, ptr %9, align 8
  %26 = load i32, ptr @ett_amf, align 4
  %27 = call ptr @proto_item_add_subtree(ptr noundef %25, i32 noundef %26)
  store ptr %27, ptr %10, align 8
  store i32 0, ptr %13, align 4
  %28 = load ptr, ptr %10, align 8
  %29 = load i32, ptr @hf_amf_version, align 4
  %30 = load ptr, ptr %5, align 8
  %31 = load i32, ptr %13, align 4
  %32 = call ptr @proto_tree_add_item(ptr noundef %28, i32 noundef %29, ptr noundef %30, i32 noundef %31, i32 noundef 2, i32 noundef 0)
  %33 = load i32, ptr %13, align 4
  %34 = add i32 %33, 2
  store i32 %34, ptr %13, align 4
  %35 = load ptr, ptr %5, align 8
  %36 = load i32, ptr %13, align 4
  %37 = call zeroext i16 @tvb_get_ntohs(ptr noundef %35, i32 noundef %36)
  %38 = zext i16 %37 to i32
  store i32 %38, ptr %14, align 4
  %39 = load ptr, ptr %10, align 8
  %40 = load i32, ptr @hf_amf_header_count, align 4
  %41 = load ptr, ptr %5, align 8
  %42 = load i32, ptr %13, align 4
  %43 = call ptr @proto_tree_add_item(ptr noundef %39, i32 noundef %40, ptr noundef %41, i32 noundef %42, i32 noundef 2, i32 noundef 0)
  %44 = load i32, ptr %13, align 4
  %45 = add i32 %44, 2
  store i32 %45, ptr %13, align 4
  %46 = load i32, ptr %14, align 4
  %47 = icmp ne i32 %46, 0
  br i1 %47, label %48, label %119

48:                                               ; preds = %4
  %49 = load ptr, ptr %10, align 8
  %50 = load ptr, ptr %5, align 8
  %51 = load i32, ptr %13, align 4
  %52 = load i32, ptr @ett_amf_headers, align 4
  %53 = call ptr @proto_tree_add_subtree(ptr noundef %49, ptr noundef %50, i32 noundef %51, i32 noundef -1, i32 noundef %52, ptr noundef null, ptr noundef @.str.433)
  store ptr %53, ptr %11, align 8
  store i32 0, ptr %16, align 4
  br label %54

54:                                               ; preds = %115, %48
  %55 = load i32, ptr %16, align 4
  %56 = load i32, ptr %14, align 4
  %57 = icmp ult i32 %55, %56
  br i1 %57, label %58, label %118

58:                                               ; preds = %54
  %59 = load ptr, ptr %5, align 8
  %60 = load i32, ptr %13, align 4
  %61 = call zeroext i16 @tvb_get_ntohs(ptr noundef %59, i32 noundef %60)
  %62 = zext i16 %61 to i32
  store i32 %62, ptr %17, align 4
  %63 = load ptr, ptr %11, align 8
  %64 = load i32, ptr @hf_amf_header_name, align 4
  %65 = load ptr, ptr %5, align 8
  %66 = load i32, ptr %13, align 4
  %67 = call ptr @proto_tree_add_item(ptr noundef %63, i32 noundef %64, ptr noundef %65, i32 noundef %66, i32 noundef 2, i32 noundef 2)
  %68 = load i32, ptr %17, align 4
  %69 = add i32 2, %68
  %70 = load i32, ptr %13, align 4
  %71 = add i32 %70, %69
  store i32 %71, ptr %13, align 4
  %72 = load ptr, ptr %11, align 8
  %73 = load i32, ptr @hf_amf_header_must_understand, align 4
  %74 = load ptr, ptr %5, align 8
  %75 = load i32, ptr %13, align 4
  %76 = call ptr @proto_tree_add_item(ptr noundef %72, i32 noundef %73, ptr noundef %74, i32 noundef %75, i32 noundef 1, i32 noundef 0)
  %77 = load i32, ptr %13, align 4
  %78 = add i32 %77, 1
  store i32 %78, ptr %13, align 4
  %79 = load ptr, ptr %5, align 8
  %80 = load i32, ptr %13, align 4
  %81 = call i32 @tvb_get_ntohl(ptr noundef %79, i32 noundef %80)
  store i32 %81, ptr %18, align 4
  %82 = load i32, ptr %18, align 4
  %83 = icmp eq i32 %82, -1
  br i1 %83, label %84, label %91

84:                                               ; preds = %58
  %85 = load ptr, ptr %11, align 8
  %86 = load i32, ptr @hf_amf_header_length, align 4
  %87 = load ptr, ptr %5, align 8
  %88 = load i32, ptr %13, align 4
  %89 = load i32, ptr %18, align 4
  %90 = call ptr (ptr, i32, ptr, i32, i32, i32, ptr, ...) @proto_tree_add_uint_format_value(ptr noundef %85, i32 noundef %86, ptr noundef %87, i32 noundef %88, i32 noundef 4, i32 noundef %89, ptr noundef @.str.383)
  br label %97

91:                                               ; preds = %58
  %92 = load ptr, ptr %11, align 8
  %93 = load i32, ptr @hf_amf_header_length, align 4
  %94 = load ptr, ptr %5, align 8
  %95 = load i32, ptr %13, align 4
  %96 = call ptr @proto_tree_add_item(ptr noundef %92, i32 noundef %93, ptr noundef %94, i32 noundef %95, i32 noundef 4, i32 noundef 0)
  br label %97

97:                                               ; preds = %91, %84
  %98 = load i32, ptr %13, align 4
  %99 = add i32 %98, 4
  store i32 %99, ptr %13, align 4
  %100 = load i8, ptr %20, align 1, !range !6, !noundef !7
  %101 = trunc i8 %100 to i1
  br i1 %101, label %102, label %108

102:                                              ; preds = %97
  %103 = load ptr, ptr %5, align 8
  %104 = load ptr, ptr %6, align 8
  %105 = load i32, ptr %13, align 4
  %106 = load ptr, ptr %11, align 8
  %107 = call i32 @dissect_amf3_value_type(ptr noundef %103, ptr noundef %104, i32 noundef %105, ptr noundef %106, ptr noundef null)
  store i32 %107, ptr %13, align 4
  br label %114

108:                                              ; preds = %97
  %109 = load ptr, ptr %5, align 8
  %110 = load ptr, ptr %6, align 8
  %111 = load i32, ptr %13, align 4
  %112 = load ptr, ptr %11, align 8
  %113 = call i32 @dissect_amf0_value_type(ptr noundef %109, ptr noundef %110, i32 noundef %111, ptr noundef %112, ptr noundef %20, ptr noundef null)
  store i32 %113, ptr %13, align 4
  br label %114

114:                                              ; preds = %108, %102
  br label %115

115:                                              ; preds = %114
  %116 = load i32, ptr %16, align 4
  %117 = add i32 %116, 1
  store i32 %117, ptr %16, align 4
  br label %54, !llvm.loop !8

118:                                              ; preds = %54
  br label %119

119:                                              ; preds = %118, %4
  %120 = load ptr, ptr %5, align 8
  %121 = load i32, ptr %13, align 4
  %122 = call zeroext i16 @tvb_get_ntohs(ptr noundef %120, i32 noundef %121)
  %123 = zext i16 %122 to i32
  store i32 %123, ptr %15, align 4
  %124 = load ptr, ptr %10, align 8
  %125 = load i32, ptr @hf_amf_message_count, align 4
  %126 = load ptr, ptr %5, align 8
  %127 = load i32, ptr %13, align 4
  %128 = call ptr @proto_tree_add_item(ptr noundef %124, i32 noundef %125, ptr noundef %126, i32 noundef %127, i32 noundef 2, i32 noundef 0)
  %129 = load i32, ptr %13, align 4
  %130 = add i32 %129, 2
  store i32 %130, ptr %13, align 4
  %131 = load i32, ptr %15, align 4
  %132 = icmp ne i32 %131, 0
  br i1 %132, label %133, label %200

133:                                              ; preds = %119
  %134 = load ptr, ptr %10, align 8
  %135 = load ptr, ptr %5, align 8
  %136 = load i32, ptr %13, align 4
  %137 = load i32, ptr @ett_amf_messages, align 4
  %138 = call ptr @proto_tree_add_subtree(ptr noundef %134, ptr noundef %135, i32 noundef %136, i32 noundef -1, i32 noundef %137, ptr noundef null, ptr noundef @.str.434)
  store ptr %138, ptr %12, align 8
  store i32 0, ptr %16, align 4
  br label %139

139:                                              ; preds = %196, %133
  %140 = load i32, ptr %16, align 4
  %141 = load i32, ptr %15, align 4
  %142 = icmp ult i32 %140, %141
  br i1 %142, label %143, label %199

143:                                              ; preds = %139
  %144 = load ptr, ptr %5, align 8
  %145 = load i32, ptr %13, align 4
  %146 = call zeroext i16 @tvb_get_ntohs(ptr noundef %144, i32 noundef %145)
  %147 = zext i16 %146 to i32
  store i32 %147, ptr %17, align 4
  %148 = load ptr, ptr %12, align 8
  %149 = load i32, ptr @hf_amf_message_target_uri, align 4
  %150 = load ptr, ptr %5, align 8
  %151 = load i32, ptr %13, align 4
  %152 = call ptr @proto_tree_add_item(ptr noundef %148, i32 noundef %149, ptr noundef %150, i32 noundef %151, i32 noundef 2, i32 noundef 2)
  %153 = load i32, ptr %17, align 4
  %154 = add i32 2, %153
  %155 = load i32, ptr %13, align 4
  %156 = add i32 %155, %154
  store i32 %156, ptr %13, align 4
  %157 = load ptr, ptr %5, align 8
  %158 = load i32, ptr %13, align 4
  %159 = call zeroext i16 @tvb_get_ntohs(ptr noundef %157, i32 noundef %158)
  %160 = zext i16 %159 to i32
  store i32 %160, ptr %17, align 4
  %161 = load ptr, ptr %12, align 8
  %162 = load i32, ptr @hf_amf_message_response_uri, align 4
  %163 = load ptr, ptr %5, align 8
  %164 = load i32, ptr %13, align 4
  %165 = call ptr @proto_tree_add_item(ptr noundef %161, i32 noundef %162, ptr noundef %163, i32 noundef %164, i32 noundef 2, i32 noundef 2)
  %166 = load i32, ptr %17, align 4
  %167 = add i32 2, %166
  %168 = load i32, ptr %13, align 4
  %169 = add i32 %168, %167
  store i32 %169, ptr %13, align 4
  %170 = load ptr, ptr %5, align 8
  %171 = load i32, ptr %13, align 4
  %172 = call i32 @tvb_get_ntohl(ptr noundef %170, i32 noundef %171)
  store i32 %172, ptr %19, align 4
  %173 = load i32, ptr %19, align 4
  %174 = icmp eq i32 %173, -1
  br i1 %174, label %175, label %182

175:                                              ; preds = %143
  %176 = load ptr, ptr %12, align 8
  %177 = load i32, ptr @hf_amf_message_length, align 4
  %178 = load ptr, ptr %5, align 8
  %179 = load i32, ptr %13, align 4
  %180 = load i32, ptr %19, align 4
  %181 = call ptr (ptr, i32, ptr, i32, i32, i32, ptr, ...) @proto_tree_add_uint_format_value(ptr noundef %176, i32 noundef %177, ptr noundef %178, i32 noundef %179, i32 noundef 4, i32 noundef %180, ptr noundef @.str.383)
  br label %188

182:                                              ; preds = %143
  %183 = load ptr, ptr %12, align 8
  %184 = load i32, ptr @hf_amf_message_length, align 4
  %185 = load ptr, ptr %5, align 8
  %186 = load i32, ptr %13, align 4
  %187 = call ptr @proto_tree_add_item(ptr noundef %183, i32 noundef %184, ptr noundef %185, i32 noundef %186, i32 noundef 4, i32 noundef 0)
  br label %188

188:                                              ; preds = %182, %175
  %189 = load i32, ptr %13, align 4
  %190 = add i32 %189, 4
  store i32 %190, ptr %13, align 4
  %191 = load ptr, ptr %5, align 8
  %192 = load ptr, ptr %6, align 8
  %193 = load i32, ptr %13, align 4
  %194 = load ptr, ptr %12, align 8
  %195 = call i32 @dissect_rtmpt_body_command(ptr noundef %191, ptr noundef %192, i32 noundef %193, ptr noundef %194, i1 noundef zeroext false)
  store i32 %195, ptr %13, align 4
  br label %196

196:                                              ; preds = %188
  %197 = load i32, ptr %16, align 4
  %198 = add i32 %197, 1
  store i32 %198, ptr %16, align 4
  br label %139, !llvm.loop !10

199:                                              ; preds = %139
  br label %200

200:                                              ; preds = %199, %119
  %201 = load ptr, ptr %5, align 8
  %202 = call i32 @tvb_captured_length(ptr noundef %201)
  call void @llvm.lifetime.end.p0(i64 1, ptr %20) #12
  call void @llvm.lifetime.end.p0(i64 4, ptr %19) #12
  call void @llvm.lifetime.end.p0(i64 4, ptr %18) #12
  call void @llvm.lifetime.end.p0(i64 4, ptr %17) #12
  call void @llvm.lifetime.end.p0(i64 4, ptr %16) #12
  call void @llvm.lifetime.end.p0(i64 4, ptr %15) #12
  call void @llvm.lifetime.end.p0(i64 4, ptr %14) #12
  call void @llvm.lifetime.end.p0(i64 4, ptr %13) #12
  call void @llvm.lifetime.end.p0(i64 8, ptr %12) #12
  call void @llvm.lifetime.end.p0(i64 8, ptr %11) #12
  call void @llvm.lifetime.end.p0(i64 8, ptr %10) #12
  call void @llvm.lifetime.end.p0(i64 8, ptr %9) #12
  ret i32 %202
}