; Function Attrs: null_pointer_is_valid sspstrong uwtable
define internal i32 @dissect_amf(ptr noundef %0, ptr noundef %1, ptr noundef %2, ptr readnone captures(none) %3) #0 {
  %5 = alloca i8, align 1
  %6 = alloca i8, align 1
  call void @llvm.lifetime.start.p0(i64 1, ptr nonnull %6) #12
  store i8 0, ptr %6, align 1
  %7 = load i32, ptr @proto_amf, align 4
  %8 = tail call ptr @proto_tree_add_item(ptr noundef %2, i32 noundef %7, ptr noundef %0, i32 noundef 0, i32 noundef -1, i32 noundef 0)
  %9 = load i32, ptr @ett_amf, align 4
  %10 = tail call ptr @proto_item_add_subtree(ptr noundef %8, i32 noundef %9)
  %11 = load i32, ptr @hf_amf_version, align 4
  %12 = tail call ptr @proto_tree_add_item(ptr noundef %10, i32 noundef %11, ptr noundef %0, i32 noundef 0, i32 noundef 2, i32 noundef 0)
  %13 = tail call zeroext i16 @tvb_get_ntohs(ptr noundef %0, i32 noundef 2)
  %14 = zext i16 %13 to i32
  %15 = load i32, ptr @hf_amf_header_count, align 4
  %16 = tail call ptr @proto_tree_add_item(ptr noundef %10, i32 noundef %15, ptr noundef %0, i32 noundef 2, i32 noundef 2, i32 noundef 0)
  %.not = icmp eq i16 %13, 0
  br i1 %.not, label %.loopexit99, label %17

17:                                               ; preds = %4
  %18 = load i32, ptr @ett_amf_headers, align 4
  %19 = tail call ptr @proto_tree_add_subtree(ptr noundef %10, ptr noundef %0, i32 noundef 4, i32 noundef -1, i32 noundef %18, ptr noundef null, ptr noundef nonnull @.str.433)
  br label %20

20:                                               ; preds = %17, %45
  %.1101 = phi i32 [ 4, %17 ], [ %.2, %45 ]
  %.092100 = phi i32 [ 0, %17 ], [ %46, %45 ]
  %21 = tail call zeroext i16 @tvb_get_ntohs(ptr noundef %0, i32 noundef %.1101)
  %22 = zext i16 %21 to i32
  %23 = load i32, ptr @hf_amf_header_name, align 4
  %24 = tail call ptr @proto_tree_add_item(ptr noundef %19, i32 noundef %23, ptr noundef %0, i32 noundef %.1101, i32 noundef 2, i32 noundef 2)
  %25 = add i32 %.1101, 2
  %26 = add i32 %25, %22
  %27 = load i32, ptr @hf_amf_header_must_understand, align 4
  %28 = tail call ptr @proto_tree_add_item(ptr noundef %19, i32 noundef %27, ptr noundef %0, i32 noundef %26, i32 noundef 1, i32 noundef 0)
  %29 = add i32 %26, 1
  %30 = tail call i32 @tvb_get_ntohl(ptr noundef %0, i32 noundef %29)
  %31 = icmp eq i32 %30, -1
  %32 = load i32, ptr @hf_amf_header_length, align 4
  br i1 %31, label %33, label %35

33:                                               ; preds = %20
  %34 = tail call ptr (ptr, i32, ptr, i32, i32, i32, ptr, ...) @proto_tree_add_uint_format_value(ptr noundef %19, i32 noundef %32, ptr noundef %0, i32 noundef %29, i32 noundef 4, i32 noundef -1, ptr noundef nonnull @.str.383)
  br label %37

35:                                               ; preds = %20
  %36 = tail call ptr @proto_tree_add_item(ptr noundef %19, i32 noundef %32, ptr noundef %0, i32 noundef %29, i32 noundef 4, i32 noundef 0)
  br label %37

37:                                               ; preds = %35, %33
  %38 = add i32 %26, 5
  %39 = load i8, ptr %6, align 1, !range !6, !noundef !7
  %40 = trunc nuw i8 %39 to i1
  br i1 %40, label %41, label %43

41:                                               ; preds = %37
  %42 = tail call fastcc i32 @dissect_amf3_value_type(ptr noundef %0, ptr noundef %1, i32 noundef %38, ptr noundef %19, ptr noundef null)
  br label %45

43:                                               ; preds = %37
  %44 = call fastcc i32 @dissect_amf0_value_type(ptr noundef %0, ptr noundef %1, i32 noundef %38, ptr noundef %19, ptr noundef nonnull %6, ptr noundef null)
  br label %45

45:                                               ; preds = %41, %43
  %.2 = phi i32 [ %42, %41 ], [ %44, %43 ]
  %46 = add nuw nsw i32 %.092100, 1
  %exitcond.not = icmp eq i32 %46, %14
  br i1 %exitcond.not, label %.loopexit99, label %20, !llvm.loop !8

.loopexit99:                                      ; preds = %45, %4
  %.0 = phi i32 [ 4, %4 ], [ %.2, %45 ]
  %47 = tail call zeroext i16 @tvb_get_ntohs(ptr noundef %0, i32 noundef %.0)
  %48 = zext i16 %47 to i32
  %49 = load i32, ptr @hf_amf_message_count, align 4
  %50 = tail call ptr @proto_tree_add_item(ptr noundef %10, i32 noundef %49, ptr noundef %0, i32 noundef %.0, i32 noundef 2, i32 noundef 0)
  %.not98 = icmp eq i16 %47, 0
  br i1 %.not98, label %.loopexit, label %51

51:                                               ; preds = %.loopexit99
  %52 = add i32 %.0, 2
  %53 = load i32, ptr @ett_amf_messages, align 4
  %54 = tail call ptr @proto_tree_add_subtree(ptr noundef %10, ptr noundef %0, i32 noundef %52, i32 noundef -1, i32 noundef %53, ptr noundef null, ptr noundef nonnull @.str.434)
  br label %55

55:                                               ; preds = %51, %dissect_rtmpt_body_command.exit
  %.3103 = phi i32 [ %52, %51 ], [ %.1.lcssa.i, %dissect_rtmpt_body_command.exit ]
  %.193102 = phi i32 [ 0, %51 ], [ %88, %dissect_rtmpt_body_command.exit ]
  %56 = tail call zeroext i16 @tvb_get_ntohs(ptr noundef %0, i32 noundef %.3103)
  %57 = zext i16 %56 to i32
  %58 = load i32, ptr @hf_amf_message_target_uri, align 4
  %59 = tail call ptr @proto_tree_add_item(ptr noundef %54, i32 noundef %58, ptr noundef %0, i32 noundef %.3103, i32 noundef 2, i32 noundef 2)
  %60 = add i32 %.3103, 2
  %61 = add i32 %60, %57
  %62 = tail call zeroext i16 @tvb_get_ntohs(ptr noundef %0, i32 noundef %61)
  %63 = zext i16 %62 to i32
  %64 = load i32, ptr @hf_amf_message_response_uri, align 4
  %65 = tail call ptr @proto_tree_add_item(ptr noundef %54, i32 noundef %64, ptr noundef %0, i32 noundef %61, i32 noundef 2, i32 noundef 2)
  %66 = add i32 %61, 2
  %67 = add i32 %66, %63
  %68 = tail call i32 @tvb_get_ntohl(ptr noundef %0, i32 noundef %67)
  %69 = icmp eq i32 %68, -1
  %70 = load i32, ptr @hf_amf_message_length, align 4
  br i1 %69, label %71, label %73

71:                                               ; preds = %55
  %72 = tail call ptr (ptr, i32, ptr, i32, i32, i32, ptr, ...) @proto_tree_add_uint_format_value(ptr noundef %54, i32 noundef %70, ptr noundef %0, i32 noundef %67, i32 noundef 4, i32 noundef -1, ptr noundef nonnull @.str.383)
  br label %75

73:                                               ; preds = %55
  %74 = tail call ptr @proto_tree_add_item(ptr noundef %54, i32 noundef %70, ptr noundef %0, i32 noundef %67, i32 noundef 4, i32 noundef 0)
  br label %75

75:                                               ; preds = %73, %71
  %76 = add i32 %67, 4
  call void @llvm.lifetime.start.p0(i64 1, ptr nonnull %5) #12
  store i8 0, ptr %5, align 1
  %77 = tail call i32 @tvb_reported_length_remaining(ptr noundef %0, i32 noundef %76)
  %78 = icmp sgt i32 %77, 0
  br i1 %78, label %.lr.ph.split.i, label %dissect_rtmpt_body_command.exit

.lr.ph.split.i:                                   ; preds = %75, %85
  %.112.i = phi i32 [ %.2.i, %85 ], [ %76, %75 ]
  %79 = load i8, ptr %5, align 1, !range !6, !noundef !7
  %80 = trunc nuw i8 %79 to i1
  br i1 %80, label %81, label %83

81:                                               ; preds = %.lr.ph.split.i
  %82 = tail call fastcc i32 @dissect_amf3_value_type(ptr noundef %0, ptr noundef %1, i32 noundef %.112.i, ptr noundef %54, ptr noundef null)
  br label %85

83:                                               ; preds = %.lr.ph.split.i
  %84 = call fastcc i32 @dissect_amf0_value_type(ptr noundef %0, ptr noundef %1, i32 noundef %.112.i, ptr noundef %54, ptr noundef nonnull %5, ptr noundef null)
  br label %85

85:                                               ; preds = %83, %81
  %.2.i = phi i32 [ %82, %81 ], [ %84, %83 ]
  %86 = tail call i32 @tvb_reported_length_remaining(ptr noundef %0, i32 noundef %.2.i)
  %87 = icmp sgt i32 %86, 0
  br i1 %87, label %.lr.ph.split.i, label %dissect_rtmpt_body_command.exit, !llvm.loop !10

dissect_rtmpt_body_command.exit:                  ; preds = %85, %75
  %.1.lcssa.i = phi i32 [ %76, %75 ], [ %.2.i, %85 ]
  call void @llvm.lifetime.end.p0(i64 1, ptr nonnull %5) #12
  %88 = add nuw nsw i32 %.193102, 1
  %exitcond104.not = icmp eq i32 %88, %48
  br i1 %exitcond104.not, label %.loopexit, label %55, !llvm.loop !12

.loopexit:                                        ; preds = %dissect_rtmpt_body_command.exit, %.loopexit99
  %89 = tail call i32 @tvb_captured_length(ptr noundef %0)
  call void @llvm.lifetime.end.p0(i64 1, ptr nonnull %6) #12
  ret i32 %89
}